target datalayout = "e-m:e-p270:32:32-p271:32:32-p272:64:64-i64:64-i128:128-f80:128-n8:16:32:64-S128"
target triple = "x86_64-pc-linux-gnu"

%struct.XSelectionEvent = type { i32, i64, i32, ptr, i64, i64, i64, i64, i64 }
%struct.XPropertyEvent = type { i32, i64, i32, ptr, i64, i64, i64, i32 }

; Function Attrs: nounwind uwtable
define internal i32 @isSelPropNewValueNotify(ptr noundef %0, ptr noundef %1, ptr noundef %2) #0 {
  %4 = alloca ptr, align 8
  %5 = alloca ptr, align 8
  %6 = alloca ptr, align 8
  %7 = alloca ptr, align 8
  store ptr %0, ptr %4, align 8, !tbaa !110
  store ptr %1, ptr %5, align 8, !tbaa !111
  store ptr %2, ptr %6, align 8, !tbaa !113
  call void @llvm.lifetime.start.p0(i64 8, ptr %7) #8
  %8 = load ptr, ptr %6, align 8, !tbaa !113
  store ptr %8, ptr %7, align 8, !tbaa !111
  %9 = load ptr, ptr %5, align 8, !tbaa !111
  %10 = load i32, ptr %9, align 8, !tbaa !109
  %11 = icmp eq i32 %10, 28
  br i1 %11, label %12, label %33

12:                                               ; preds = %3
  %13 = load ptr, ptr %5, align 8, !tbaa !111
  %14 = getelementptr inbounds nuw %struct.XPropertyEvent, ptr %13, i32 0, i32 7
  %15 = load i32, ptr %14, align 8, !tbaa !109
  %16 = icmp eq i32 %15, 0
  br i1 %16, label %17, label %33

17:                                               ; preds = %12
  %18 = load ptr, ptr %5, align 8, !tbaa !111
  %19 = getelementptr inbounds nuw %struct.XPropertyEvent, ptr %18, i32 0, i32 4
  %20 = load i64, ptr %19, align 8, !tbaa !109
  %21 = load ptr, ptr %7, align 8, !tbaa !111
  %22 = getelementptr inbounds nuw %struct.XSelectionEvent, ptr %21, i32 0, i32 4
  %23 = load i64, ptr %22, align 8, !tbaa !109
  %24 = icmp eq i64 %20, %23
  br i1 %24, label %25, label %33

25:                                               ; preds = %17
  %26 = load ptr, ptr %5, align 8, !tbaa !111
  %27 = getelementptr inbounds nuw %struct.XPropertyEvent, ptr %26, i32 0, i32 5
  %28 = load i64, ptr %27, align 8, !tbaa !109
  %29 = load ptr, ptr %7, align 8, !tbaa !111
  %30 = getelementptr inbounds nuw %struct.XSelectionEvent, ptr %29, i32 0, i32 7
  %31 = load i64, ptr %30, align 8, !tbaa !109
  %32 = icmp eq i64 %28, %31
  br label %33

33:                                               ; preds = %25, %17, %12, %3
  %34 = phi i1 [ false, %17 ], [ false, %12 ], [ false, %3 ], [ %32, %25 ]
  %35 = zext i1 %34 to i32
  call void @llvm.lifetime.end.p0(i64 8, ptr %7) #8
  ret i32 %35
}