; Function Attrs: mustprogress nofree norecurse nosync nounwind willreturn memory(argmem: read) uwtable
define internal range(i32 0, 2) i32 @isSelPropNewValueNotify(ptr readnone captures(none) %0, ptr noundef readonly captures(none) %1, ptr noundef readonly captures(none) %2) #15 {
  %4 = load i32, ptr %1, align 8, !tbaa !106
  %5 = icmp eq i32 %4, 28
  br i1 %5, label %6, label %23

6:                                                ; preds = %3
  %7 = getelementptr inbounds nuw i8, ptr %1, i64 56
  %8 = load i32, ptr %7, align 8, !tbaa !106
  %9 = icmp eq i32 %8, 0
  br i1 %9, label %10, label %23

10:                                               ; preds = %6
  %11 = getelementptr inbounds nuw i8, ptr %1, i64 32
  %12 = load i64, ptr %11, align 8, !tbaa !106
  %13 = getelementptr inbounds nuw i8, ptr %2, i64 32
  %14 = load i64, ptr %13, align 8, !tbaa !106
  %15 = icmp eq i64 %12, %14
  br i1 %15, label %16, label %23

16:                                               ; preds = %10
  %17 = getelementptr inbounds nuw i8, ptr %1, i64 40
  %18 = load i64, ptr %17, align 8, !tbaa !106
  %19 = getelementptr inbounds nuw i8, ptr %2, i64 56
  %20 = load i64, ptr %19, align 8, !tbaa !106
  %21 = icmp eq i64 %18, %20
  %22 = zext i1 %21 to i32
  br label %23

23:                                               ; preds = %16, %10, %6, %3
  %24 = phi i32 [ 0, %10 ], [ 0, %6 ], [ 0, %3 ], [ %22, %16 ]
  ret i32 %24
}